target datalayout = "e-m:e-p270:32:32-p271:32:32-p272:64:64-i64:64-i128:128-f80:128-n8:16:32:64-S128"
target triple = "x86_64-pc-linux-gnu"

; Function Attrs: nounwind uwtable
define void @Map_MappingSetupMask(ptr noundef %0, i32 noundef %1) #0 {
  %3 = alloca ptr, align 8
  %4 = alloca i32, align 4
  store ptr %0, ptr %3, align 8, !tbaa !50
  store i32 %1, ptr %4, align 4, !tbaa !10
  %5 = load i32, ptr %4, align 4, !tbaa !10
  %6 = icmp eq i32 %5, 6
  br i1 %6, label %7, label %12

7:                                                ; preds = %2
  %8 = load ptr, ptr %3, align 8, !tbaa !50
  %9 = getelementptr inbounds i32, ptr %8, i64 1
  store i32 -1, ptr %9, align 4, !tbaa !10
  %10 = load ptr, ptr %3, align 8, !tbaa !50
  %11 = getelementptr inbounds i32, ptr %10, i64 0
  store i32 -1, ptr %11, align 4, !tbaa !10
  br label %21

12:                                               ; preds = %2
  %13 = load i32, ptr %4, align 4, !tbaa !10
  %14 = shl i32 1, %13
  %15 = sub nsw i32 32, %14
  %16 = lshr i32 -1, %15
  %17 = load ptr, ptr %3, align 8, !tbaa !50
  %18 = getelementptr inbounds i32, ptr %17, i64 0
  store i32 %16, ptr %18, align 4, !tbaa !10
  %19 = load ptr, ptr %3, align 8, !tbaa !50
  %20 = getelementptr inbounds i32, ptr %19, i64 1
  store i32 0, ptr %20, align 4, !tbaa !10
  br label %21

21:                                               ; preds = %12, %7
  ret void
}