; Function Attrs: mustprogress nofree norecurse nosync nounwind willreturn memory(argmem: write) uwtable
define void @Map_MappingSetupMask(ptr noundef writeonly captures(none) initializes((0, 8)) %0, i32 noundef %1) local_unnamed_addr #7 {
  %3 = icmp eq i32 %1, 6
  %.neg = shl nsw i32 -1, %1
  %4 = add nsw i32 %.neg, 32
  %5 = lshr i32 -1, %4
  %.sink5 = sext i1 %3 to i32
  %.sink = select i1 %3, i32 -1, i32 %5
  %6 = getelementptr inbounds nuw i8, ptr %0, i64 4
  store i32 %.sink5, ptr %6, align 4, !tbaa !39
  store i32 %.sink, ptr %0, align 4, !tbaa !39
  ret void
}